target datalayout = "e-m:e-p270:32:32-p271:32:32-p272:64:64-i64:64-i128:128-f80:128-n8:16:32:64-S128"
target triple = "x86_64-unknown-linux-gnu"

%"struct.std::nothrow_t" = type { i8 }
%"class.zmq::io_thread_t" = type { %"class.zmq::object_t.base", %"struct.zmq::i_poll_events", %"class.zmq::mailbox_t", ptr, ptr }
%"class.zmq::object_t.base" = type <{ ptr, ptr, i32 }>
%"struct.zmq::i_poll_events" = type { ptr }
%"class.zmq::mailbox_t" = type <{ %"class.zmq::i_mailbox", %"class.zmq::ypipe_t", %"class.zmq::signaler_t", [4 x i8], %"class.zmq::mutex_t", i8, [7 x i8] }>
%"class.zmq::i_mailbox" = type { ptr }
%"class.zmq::ypipe_t" = type { %"class.zmq::ypipe_base_t", %"class.zmq::yqueue_t", ptr, ptr, ptr, %"class.zmq::atomic_ptr_t.0" }
%"class.zmq::ypipe_base_t" = type { ptr }
%"class.zmq::yqueue_t" = type { ptr, i32, ptr, i32, ptr, i32, %"class.zmq::atomic_ptr_t" }
%"class.zmq::atomic_ptr_t" = type { %"struct.std::atomic" }
%"struct.std::atomic" = type { %"struct.std::__atomic_base" }
%"struct.std::__atomic_base" = type { ptr }
%"class.zmq::atomic_ptr_t.0" = type { %"struct.std::atomic.1" }
%"struct.std::atomic.1" = type { %"struct.std::__atomic_base.2" }
%"struct.std::__atomic_base.2" = type { ptr }
%"class.zmq::signaler_t" = type { i32, i32, i32 }
%"class.zmq::mutex_t" = type <{ %union.pthread_mutex_t, %union.pthread_mutexattr_t, [4 x i8] }>
%union.pthread_mutex_t = type { %struct.__pthread_mutex_s }
%struct.__pthread_mutex_s = type { i32, i32, i32, i32, i32, i16, i16, %struct.__pthread_internal_list }
%struct.__pthread_internal_list = type { ptr, ptr }
%union.pthread_mutexattr_t = type { i32 }

@_ZSt7nothrow = external global %"struct.std::nothrow_t", align 1
@stderr = external global ptr, align 8
@.str = private unnamed_addr constant [36 x i8] c"FATAL ERROR: OUT OF MEMORY (%s:%d)\0A\00", align 1
@.str.1 = private unnamed_addr constant [109 x i8] c"generated/home/dtcxzyw/WorkSpace/Projects/compilers/llvm-opt-benchmark/bench/libzmq/libzmq/src/io_thread.cpp\00", align 1
@.str.2 = private unnamed_addr constant [27 x i8] c"FATAL ERROR: OUT OF MEMORY\00", align 1
@_ZTVN3zmq13i_poll_eventsE = linkonce_odr unnamed_addr constant { [7 x ptr] } { [7 x ptr] [ptr null, ptr @_ZTIN3zmq13i_poll_eventsE, ptr @_ZN3zmq13i_poll_eventsD2Ev, ptr @_ZN3zmq13i_poll_eventsD0Ev, ptr @__cxa_pure_virtual, ptr @__cxa_pure_virtual, ptr @__cxa_pure_virtual] }, comdat, align 8

; Function Attrs: mustprogress nounwind uwtable
define linkonce_odr void @_ZN3zmq13i_poll_eventsD2Ev(ptr noundef nonnull align 8 dereferenceable(8) %this) unnamed_addr #2 comdat align 2 {
entry:
  %this.addr = alloca ptr, align 8
  store ptr %this, ptr %this.addr, align 8
  ret void
}

; Function Attrs: mustprogress nounwind uwtable
define linkonce_odr void @_ZN3zmq13i_poll_eventsC2Ev(ptr noundef nonnull align 8 dereferenceable(8) %this) unnamed_addr #2 comdat align 2 {
entry:
  %this.addr = alloca ptr, align 8
  store ptr %this, ptr %this.addr, align 8
  %this1 = load ptr, ptr %this.addr, align 8
  store ptr getelementptr inbounds ({ [7 x ptr] }, ptr @_ZTVN3zmq13i_poll_eventsE, i32 0, i32 0, i32 2), ptr %this1, align 8
  ret void
}

; Function Attrs: mustprogress uwtable
define void @_ZN3zmq11io_thread_tC2EPNS_5ctx_tEj(ptr noundef nonnull align 8 dereferenceable(224) %this, ptr noundef %ctx_, i32 noundef %tid_) unnamed_addr #0 align 2 personality ptr @__gxx_personality_v0 {
entry:
  %this.addr = alloca ptr, align 8
  %ctx_.addr = alloca ptr, align 8
  %tid_.addr = alloca i32, align 4
  %exn.slot = alloca ptr, align 8
  %ehselector.slot = alloca i32, align 4
  %saved-rvalue = alloca ptr, align 8
  %cleanup.cond = alloca i1, align 1
  store ptr %this, ptr %this.addr, align 8
  store ptr %ctx_, ptr %ctx_.addr, align 8
  store i32 %tid_, ptr %tid_.addr, align 4
  %this1 = load ptr, ptr %this.addr, align 8
  %0 = load ptr, ptr %ctx_.addr, align 8
  %1 = load i32, ptr %tid_.addr, align 4
  call void @_ZN3zmq8object_tC2EPNS_5ctx_tEj(ptr noundef nonnull align 8 dereferenceable(20) %this1, ptr noundef %0, i32 noundef %1)
  %2 = getelementptr inbounds i8, ptr %this1, i64 24
  call void @_ZN3zmq13i_poll_eventsC2Ev(ptr noundef nonnull align 8 dereferenceable(8) %2) #11
  store ptr getelementptr inbounds ({ [28 x ptr], [7 x ptr] }, ptr @_ZTVN3zmq11io_thread_tE, i32 0, i32 0, i32 2), ptr %this1, align 8
  %add.ptr = getelementptr inbounds i8, ptr %this1, i64 24
  store ptr getelementptr inbounds ({ [28 x ptr], [7 x ptr] }, ptr @_ZTVN3zmq11io_thread_tE, i32 0, i32 1, i32 2), ptr %add.ptr, align 8
  %_mailbox = getelementptr inbounds %"class.zmq::io_thread_t", ptr %this1, i32 0, i32 2
  invoke void @_ZN3zmq9mailbox_tC1Ev(ptr noundef nonnull align 8 dereferenceable(176) %_mailbox)
          to label %invoke.cont unwind label %lpad

invoke.cont:                                      ; preds = %entry
  %_mailbox_handle = getelementptr inbounds %"class.zmq::io_thread_t", ptr %this1, i32 0, i32 3
  store ptr null, ptr %_mailbox_handle, align 8
  %call = call noalias noundef ptr @_ZnwmRKSt9nothrow_t(i64 noundef 224, ptr noundef nonnull align 1 dereferenceable(1) @_ZSt7nothrow) #12
  %new.isnull = icmp eq ptr %call, null
  store i1 false, ptr %cleanup.cond, align 1
  br i1 %new.isnull, label %new.cont, label %new.notnull

new.notnull:                                      ; preds = %invoke.cont
  store ptr %call, ptr %saved-rvalue, align 8
  store i1 true, ptr %cleanup.cond, align 1
  %3 = load ptr, ptr %ctx_.addr, align 8
  invoke void @_ZN3zmq7epoll_tC1ERKNS_12thread_ctx_tE(ptr noundef nonnull align 8 dereferenceable(224) %call, ptr noundef nonnull align 8 dereferenceable(136) %3)
          to label %invoke.cont3 unwind label %lpad2

invoke.cont3:                                     ; preds = %new.notnull
  br label %new.cont

new.cont:                                         ; preds = %invoke.cont3, %invoke.cont
  %4 = phi ptr [ %call, %invoke.cont3 ], [ null, %invoke.cont ]
  %_poller = getelementptr inbounds %"class.zmq::io_thread_t", ptr %this1, i32 0, i32 4
  store ptr %4, ptr %_poller, align 8
  br label %do.body

do.body:                                          ; preds = %new.cont
  %_poller4 = getelementptr inbounds %"class.zmq::io_thread_t", ptr %this1, i32 0, i32 4
  %5 = load ptr, ptr %_poller4, align 8
  %tobool = icmp ne ptr %5, null
  %lnot = xor i1 %tobool, true
  br i1 %lnot, label %if.then, label %if.end

if.then:                                          ; preds = %do.body
  %6 = load ptr, ptr @stderr, align 8
  %call7 = invoke i32 (ptr, ptr, ...) @fprintf(ptr noundef %6, ptr noundef @.str, ptr noundef @.str.1, i32 noundef 17)
          to label %invoke.cont6 unwind label %lpad5

invoke.cont6:                                     ; preds = %if.then
  %7 = load ptr, ptr @stderr, align 8
  %call9 = invoke i32 @fflush(ptr noundef %7)
          to label %invoke.cont8 unwind label %lpad5

invoke.cont8:                                     ; preds = %invoke.cont6
  invoke void @_ZN3zmq9zmq_abortEPKc(ptr noundef @.str.2)
          to label %invoke.cont10 unwind label %lpad5

invoke.cont10:                                    ; preds = %invoke.cont8
  br label %if.end

lpad:                                             ; preds = %entry
  %8 = landingpad { ptr, i32 }
          cleanup
  %9 = extractvalue { ptr, i32 } %8, 0
  store ptr %9, ptr %exn.slot, align 8
  %10 = extractvalue { ptr, i32 } %8, 1
  store i32 %10, ptr %ehselector.slot, align 4
  br label %ehcleanup27

lpad2:                                            ; preds = %new.notnull
  %11 = landingpad { ptr, i32 }
          cleanup
  %12 = extractvalue { ptr, i32 } %11, 0
  store ptr %12, ptr %exn.slot, align 8
  %13 = extractvalue { ptr, i32 } %11, 1
  store i32 %13, ptr %ehselector.slot, align 4
  %cleanup.is_active = load i1, ptr %cleanup.cond, align 1
  br i1 %cleanup.is_active, label %cleanup.action, label %cleanup.done

cleanup.action:                                   ; preds = %lpad2
  %14 = load ptr, ptr %saved-rvalue, align 8
  call void @_ZdlPvRKSt9nothrow_t(ptr noundef %14, ptr noundef nonnull align 1 dereferenceable(1) @_ZSt7nothrow) #13
  br label %cleanup.done

cleanup.done:                                     ; preds = %cleanup.action, %lpad2
  br label %ehcleanup

lpad5:                                            ; preds = %invoke.cont20, %invoke.cont17, %if.then14, %do.end, %invoke.cont8, %invoke.cont6, %if.then
  %15 = landingpad { ptr, i32 }
          cleanup
  %16 = extractvalue { ptr, i32 } %15, 0
  store ptr %16, ptr %exn.slot, align 8
  %17 = extractvalue { ptr, i32 } %15, 1
  store i32 %17, ptr %ehselector.slot, align 4
  br label %ehcleanup

if.end:                                           ; preds = %invoke.cont10, %do.body
  br label %do.cond

do.cond:                                          ; preds = %if.end
  br label %do.end

do.end:                                           ; preds = %do.cond
  %_mailbox11 = getelementptr inbounds %"class.zmq::io_thread_t", ptr %this1, i32 0, i32 2
  %call13 = invoke noundef i32 @_ZNK3zmq9mailbox_t6get_fdEv(ptr noundef nonnull align 8 dereferenceable(176) %_mailbox11)
          to label %invoke.cont12 unwind label %lpad5

invoke.cont12:                                    ; preds = %do.end
  %cmp = icmp ne i32 %call13, -1
  br i1 %cmp, label %if.then14, label %if.end26

if.then14:                                        ; preds = %invoke.cont12
  %_poller15 = getelementptr inbounds %"class.zmq::io_thread_t", ptr %this1, i32 0, i32 4
  %18 = load ptr, ptr %_poller15, align 8
  %_mailbox16 = getelementptr inbounds %"class.zmq::io_thread_t", ptr %this1, i32 0, i32 2
  %call18 = invoke noundef i32 @_ZNK3zmq9mailbox_t6get_fdEv(ptr noundef nonnull align 8 dereferenceable(176) %_mailbox16)
          to label %invoke.cont17 unwind label %lpad5

invoke.cont17:                                    ; preds = %if.then14
  %add.ptr19 = getelementptr inbounds i8, ptr %this1, i64 24
  %call21 = invoke noundef ptr @_ZN3zmq7epoll_t6add_fdEiPNS_13i_poll_eventsE(ptr noundef nonnull align 8 dereferenceable(224) %18, i32 noundef %call18, ptr noundef %add.ptr19)
          to label %invoke.cont20 unwind label %lpad5

invoke.cont20:                                    ; preds = %invoke.cont17
  %_mailbox_handle22 = getelementptr inbounds %"class.zmq::io_thread_t", ptr %this1, i32 0, i32 3
  store ptr %call21, ptr %_mailbox_handle22, align 8
  %_poller23 = getelementptr inbounds %"class.zmq::io_thread_t", ptr %this1, i32 0, i32 4
  %19 = load ptr, ptr %_poller23, align 8
  %_mailbox_handle24 = getelementptr inbounds %"class.zmq::io_thread_t", ptr %this1, i32 0, i32 3
  %20 = load ptr, ptr %_mailbox_handle24, align 8
  invoke void @_ZN3zmq7epoll_t10set_pollinEPv(ptr noundef nonnull align 8 dereferenceable(224) %19, ptr noundef %20)
          to label %invoke.cont25 unwind label %lpad5

invoke.cont25:                                    ; preds = %invoke.cont20
  br label %if.end26

if.end26:                                         ; preds = %invoke.cont25, %invoke.cont12
  ret void

ehcleanup:                                        ; preds = %lpad5, %cleanup.done
  call void @_ZN3zmq9mailbox_tD1Ev(ptr noundef nonnull align 8 dereferenceable(176) %_mailbox) #11
  br label %ehcleanup27

ehcleanup27:                                      ; preds = %ehcleanup, %lpad
  %21 = getelementptr inbounds i8, ptr %this1, i64 24
  call void @_ZN3zmq13i_poll_eventsD2Ev(ptr noundef nonnull align 8 dereferenceable(8) %21) #11
  call void @_ZN3zmq8object_tD2Ev(ptr noundef nonnull align 8 dereferenceable(20) %this1) #11
  br label %eh.resume

eh.resume:                                        ; preds = %ehcleanup27
  %exn = load ptr, ptr %exn.slot, align 8
  %sel = load i32, ptr %ehselector.slot, align 4
  %lpad.val = insertvalue { ptr, i32 } poison, ptr %exn, 0
  %lpad.val29 = insertvalue { ptr, i32 } %lpad.val, i32 %sel, 1
  resume { ptr, i32 } %lpad.val29
}