; Function Attrs: mustprogress uwtable
define void @_ZN3zmq11io_thread_tC2EPNS_5ctx_tEj(ptr noundef nonnull align 8 dereferenceable(224) %this, ptr noundef %ctx_, i32 noundef %tid_) unnamed_addr #0 align 2 personality ptr @__gxx_personality_v0 {
entry:
  tail call void @_ZN3zmq8object_tC2EPNS_5ctx_tEj(ptr noundef nonnull align 8 dereferenceable(20) %this, ptr noundef %ctx_, i32 noundef %tid_)
  %0 = getelementptr inbounds i8, ptr %this, i64 24
  store ptr getelementptr inbounds ({ [28 x ptr], [7 x ptr] }, ptr @_ZTVN3zmq11io_thread_tE, i64 0, i32 0, i64 2), ptr %this, align 8
  store ptr getelementptr inbounds ({ [28 x ptr], [7 x ptr] }, ptr @_ZTVN3zmq11io_thread_tE, i64 0, i32 1, i64 2), ptr %0, align 8
  %_mailbox = getelementptr inbounds i8, ptr %this, i64 32
  invoke void @_ZN3zmq9mailbox_tC1Ev(ptr noundef nonnull align 8 dereferenceable(176) %_mailbox)
          to label %invoke.cont unwind label %lpad

invoke.cont:                                      ; preds = %entry
  %_mailbox_handle = getelementptr inbounds i8, ptr %this, i64 208
  store ptr null, ptr %_mailbox_handle, align 8
  %call = tail call noalias noundef dereferenceable_or_null(224) ptr @_ZnwmRKSt9nothrow_t(i64 noundef 224, ptr noundef nonnull align 1 dereferenceable(1) @_ZSt7nothrow) #12
  %new.isnull = icmp eq ptr %call, null
  br i1 %new.isnull, label %if.then, label %new.notnull

new.notnull:                                      ; preds = %invoke.cont
  invoke void @_ZN3zmq7epoll_tC1ERKNS_12thread_ctx_tE(ptr noundef nonnull align 8 dereferenceable(224) %call, ptr noundef nonnull align 8 dereferenceable(136) %ctx_)
          to label %new.cont unwind label %lpad2

new.cont:                                         ; preds = %new.notnull
  %_poller = getelementptr inbounds i8, ptr %this, i64 216
  store ptr %call, ptr %_poller, align 8
  br label %do.end

if.then:                                          ; preds = %invoke.cont
  %_poller4 = getelementptr inbounds i8, ptr %this, i64 216
  store ptr null, ptr %_poller4, align 8
  %1 = load ptr, ptr @stderr, align 8
  %call7 = tail call i32 (ptr, ptr, ...) @fprintf(ptr noundef %1, ptr noundef nonnull @.str, ptr noundef nonnull @.str.1, i32 noundef 17) #13
  %2 = load ptr, ptr @stderr, align 8
  %call9 = tail call i32 @fflush(ptr noundef %2)
  invoke void @_ZN3zmq9zmq_abortEPKc(ptr noundef nonnull @.str.2)
          to label %do.end unwind label %lpad5

lpad:                                             ; preds = %entry
  %3 = landingpad { ptr, i32 }
          cleanup
  br label %ehcleanup27

lpad2:                                            ; preds = %new.notnull
  %4 = landingpad { ptr, i32 }
          cleanup
  tail call void @_ZdlPvRKSt9nothrow_t(ptr noundef nonnull %call, ptr noundef nonnull align 1 dereferenceable(1) @_ZSt7nothrow) #14
  br label %ehcleanup

lpad5:                                            ; preds = %invoke.cont20, %invoke.cont17, %if.then14, %do.end, %if.then
  %5 = landingpad { ptr, i32 }
          cleanup
  br label %ehcleanup

do.end:                                           ; preds = %new.cont, %if.then
  %_poller6 = phi ptr [ %_poller4, %if.then ], [ %_poller, %new.cont ]
  %call13 = invoke noundef i32 @_ZNK3zmq9mailbox_t6get_fdEv(ptr noundef nonnull align 8 dereferenceable(176) %_mailbox)
          to label %invoke.cont12 unwind label %lpad5

invoke.cont12:                                    ; preds = %do.end
  %cmp.not = icmp eq i32 %call13, -1
  br i1 %cmp.not, label %if.end26, label %if.then14

if.then14:                                        ; preds = %invoke.cont12
  %6 = load ptr, ptr %_poller6, align 8
  %call18 = invoke noundef i32 @_ZNK3zmq9mailbox_t6get_fdEv(ptr noundef nonnull align 8 dereferenceable(176) %_mailbox)
          to label %invoke.cont17 unwind label %lpad5

invoke.cont17:                                    ; preds = %if.then14
  %call21 = invoke noundef ptr @_ZN3zmq7epoll_t6add_fdEiPNS_13i_poll_eventsE(ptr noundef nonnull align 8 dereferenceable(224) %6, i32 noundef %call18, ptr noundef nonnull %0)
          to label %invoke.cont20 unwind label %lpad5

invoke.cont20:                                    ; preds = %invoke.cont17
  store ptr %call21, ptr %_mailbox_handle, align 8
  %7 = load ptr, ptr %_poller6, align 8
  invoke void @_ZN3zmq7epoll_t10set_pollinEPv(ptr noundef nonnull align 8 dereferenceable(224) %7, ptr noundef %call21)
          to label %if.end26 unwind label %lpad5

if.end26:                                         ; preds = %invoke.cont20, %invoke.cont12
  ret void

ehcleanup:                                        ; preds = %lpad2, %lpad5
  %.pn = phi { ptr, i32 } [ %5, %lpad5 ], [ %4, %lpad2 ]
  tail call void @_ZN3zmq9mailbox_tD1Ev(ptr noundef nonnull align 8 dereferenceable(176) %_mailbox) #15
  br label %ehcleanup27

ehcleanup27:                                      ; preds = %ehcleanup, %lpad
  %.pn.pn = phi { ptr, i32 } [ %.pn, %ehcleanup ], [ %3, %lpad ]
  tail call void @_ZN3zmq8object_tD2Ev(ptr noundef nonnull align 8 dereferenceable(20) %this) #15
  resume { ptr, i32 } %.pn.pn
}